target datalayout = "e-m:e-p270:32:32-p271:32:32-p272:64:64-i64:64-i128:128-f80:128-n8:16:32:64-S128"
target triple = "x86_64-pc-linux-gnu"

@.str.131 = private unnamed_addr constant [12 x i8] c"scalar.repo\00", align 1

; Function Attrs: nounwind uwtable
define internal i32 @get_scalar_repos(ptr noundef %0, ptr noundef %1, ptr noundef %2, ptr noundef %3) #0 {
  %5 = alloca ptr, align 8
  %6 = alloca ptr, align 8
  %7 = alloca ptr, align 8
  %8 = alloca ptr, align 8
  %9 = alloca ptr, align 8
  store ptr %0, ptr %5, align 8, !tbaa !4
  store ptr %1, ptr %6, align 8, !tbaa !4
  store ptr %2, ptr %7, align 8, !tbaa !100
  store ptr %3, ptr %8, align 8, !tbaa !99
  call void @llvm.lifetime.start.p0(i64 8, ptr %9) #12
  %10 = load ptr, ptr %8, align 8, !tbaa !99
  store ptr %10, ptr %9, align 8, !tbaa !102
  %11 = load ptr, ptr %5, align 8, !tbaa !4
  %12 = call i32 @strcmp(ptr noundef %11, ptr noundef @.str.131) #13
  %13 = icmp ne i32 %12, 0
  br i1 %13, label %18, label %14

14:                                               ; preds = %4
  %15 = load ptr, ptr %9, align 8, !tbaa !102
  %16 = load ptr, ptr %6, align 8, !tbaa !4
  %17 = call ptr @string_list_append(ptr noundef %15, ptr noundef %16)
  br label %18

18:                                               ; preds = %14, %4
  call void @llvm.lifetime.end.p0(i64 8, ptr %9) #12
  ret i32 0
}