; Function Attrs: nounwind uwtable
define internal noundef i32 @get_scalar_repos(ptr noundef readonly captures(none) %0, ptr noundef %1, ptr readnone captures(none) %2, ptr noundef %3) #2 {
  %5 = tail call i32 @strcmp(ptr noundef nonnull dereferenceable(1) %0, ptr noundef nonnull dereferenceable(12) @.str.131) #19
  %.not = icmp eq i32 %5, 0
  br i1 %.not, label %6, label %8

6:                                                ; preds = %4
  %7 = tail call ptr @string_list_append(ptr noundef %3, ptr noundef %1) #18
  br label %8

8:                                                ; preds = %6, %4
  ret i32 0
}